(lp0
cnumpy.core.multiarray
_reconstruct
p1
(cnumpy
ndarray
p2
(I0
tp3
S'b'
p4
tp5
Rp6
(I1
(I2
I1
tp7
cnumpy
dtype
p8
(S'f4'
p9
I0
I1
tp10
Rp11
(I3
S'<'
p12
NNNI-1
I-1
I0
tp13
bI00
S'\xcb\xa6\x16\xbb\xe3P\xed<'
p14
tp15
bag1
(g2
(I0
tp16
g4
tp17
Rp18
(I1
(I2
I1
tp19
g11
I00
S"'\xe8 \xbb\xad\x89\xed<"
p20
tp21
bag1
(g2
(I0
tp22
g4
tp23
Rp24
(I1
(I2
I1
tp25
g11
I00
S'-B\x1e\xbbj\xae\xee<'
p26
tp27
bag1
(g2
(I0
tp28
g4
tp29
Rp30
(I1
(I2
I1
tp31
g11
I00
S'\xe2C>\xbb\xe0\xe6\xed<'
p32
tp33
bag1
(g2
(I0
tp34
g4
tp35
Rp36
(I1
(I2
I1
tp37
g11
I00
S'\x84g\x14\xbb\xa38\xee<'
p38
tp39
bag1
(g2
(I0
tp40
g4
tp41
Rp42
(I1
(I2
I1
tp43
g11
I00
S'\n\xabQ\xbb\xfdY\xec<'
p44
tp45
bag1
(g2
(I0
tp46
g4
tp47
Rp48
(I1
(I2
I1
tp49
g11
I00
S'\xf2o.\xbb )\xed<'
p50
tp51
bag1
(g2
(I0
tp52
g4
tp53
Rp54
(I1
(I2
I1
tp55
g11
I00
S'}\x12=\xbb\x08f\xed<'
p56
tp57
bag1
(g2
(I0
tp58
g4
tp59
Rp60
(I1
(I2
I1
tp61
g11
I00
S'\xef\x99+\xbbB\x8c\xee<'
p62
tp63
bag1
(g2
(I0
tp64
g4
tp65
Rp66
(I1
(I2
I1
tp67
g11
I00
S'\xe28^\xbb\xe5\x0c\xed<'
p68
tp69
bag1
(g2
(I0
tp70
g4
tp71
Rp72
(I1
(I2
I1
tp73
g11
I00
S'\x8be<\xbb\x1bX\xef<'
p74
tp75
bag1
(g2
(I0
tp76
g4
tp77
Rp78
(I1
(I2
I1
tp79
g11
I00
S'{\xa3\x1f\xbb\xcfV\xf0<'
p80
tp81
bag1
(g2
(I0
tp82
g4
tp83
Rp84
(I1
(I2
I1
tp85
g11
I00
S'\x13\x92-\xbb"\x16\xf1<'
p86
tp87
bag1
(g2
(I0
tp88
g4
tp89
Rp90
(I1
(I2
I1
tp91
g11
I00
S'\xf3tD\xbb\xa2\x14\xf0<'
p92
tp93
bag1
(g2
(I0
tp94
g4
tp95
Rp96
(I1
(I2
I1
tp97
g11
I00
S'\xbd\\3\xbbM\xc7\xef<'
p98
tp99
bag1
(g2
(I0
tp100
g4
tp101
Rp102
(I1
(I2
I1
tp103
g11
I00
S'\xa33\x86\xbb@\xc9\xed<'
p104
tp105
bag1
(g2
(I0
tp106
g4
tp107
Rp108
(I1
(I2
I1
tp109
g11
I00
S'\xc5s\x15\xbb5\xeb\xf1<'
p110
tp111
bag1
(g2
(I0
tp112
g4
tp113
Rp114
(I1
(I2
I1
tp115
g11
I00
S'\x15X\x08\xbb\xddr\xf1<'
p116
tp117
bag1
(g2
(I0
tp118
g4
tp119
Rp120
(I1
(I2
I1
tp121
g11
I00
S'\xf3[\x1b\xbb\xc2~\xed<'
p122
tp123
bag1
(g2
(I0
tp124
g4
tp125
Rp126
(I1
(I2
I1
tp127
g11
I00
S'-\xad\xb0\xba\x80\xe0\xe8<'
p128
tp129
bag1
(g2
(I0
tp130
g4
tp131
Rp132
(I1
(I2
I1
tp133
g11
I00
S' \x17\xf2\xba\xeb\x88\xe5<'
p134
tp135
bag1
(g2
(I0
tp136
g4
tp137
Rp138
(I1
(I2
I1
tp139
g11
I00
S'\xda\xad\xa9\xba\xca\xb0\xe4<'
p140
tp141
bag1
(g2
(I0
tp142
g4
tp143
Rp144
(I1
(I2
I1
tp145
g11
I00
S':"\x02\xbb\xa5\x9f\xe1<'
p146
tp147
bag1
(g2
(I0
tp148
g4
tp149
Rp150
(I1
(I2
I1
tp151
g11
I00
S'g0D\xba\x92M\xe0<'
p152
tp153
bag1
(g2
(I0
tp154
g4
tp155
Rp156
(I1
(I2
I1
tp157
g11
I00
S'\xb3\x15)\xbagp\xdd<'
p158
tp159
bag1
(g2
(I0
tp160
g4
tp161
Rp162
(I1
(I2
I1
tp163
g11
I00
S'\xcd\xcc\xc0\xb8P\x00\xdc<'
p164
tp165
bag1
(g2
(I0
tp166
g4
tp167
Rp168
(I1
(I2
I1
tp169
g11
I00
S' \xec\x9d\xba\n\xf1\xd7<'
p170
tp171
bag1
(g2
(I0
tp172
g4
tp173
Rp174
(I1
(I2
I1
tp175
g11
I00
S'\x80/Q9\xb8\x82\xda<'
p176
tp177
bag1
(g2
(I0
tp178
g4
tp179
Rp180
(I1
(I2
I1
tp181
g11
I00
S'-h\xbc\xb9\x1b\xd6\xd6<'
p182
tp183
bag1
(g2
(I0
tp184
g4
tp185
Rp186
(I1
(I2
I1
tp187
g11
I00
S'\x9a&\xd6\xb9O\x13\xd5<'
p188
tp189
bag1
(g2
(I0
tp190
g4
tp191
Rp192
(I1
(I2
I1
tp193
g11
I00
S'g\xe6\x8d7\xaf\x15\xd5<'
p194
tp195
bag1
(g2
(I0
tp196
g4
tp197
Rp198
(I1
(I2
I1
tp199
g11
I00
S'X5\x93:\x08\x0f\xd4<'
p200
tp201
bag1
(g2
(I0
tp202
g4
tp203
Rp204
(I1
(I2
I1
tp205
g11
I00
S'u\xdc\xbd:uu\xd3<'
p206
tp207
bag1
(g2
(I0
tp208
g4
tp209
Rp210
(I1
(I2
I1
tp211
g11
I00
S'\xe0\xd6\xb0:X\xb8\xcf<'
p212
tp213
bag1
(g2
(I0
tp214
g4
tp215
Rp216
(I1
(I2
I1
tp217
g11
I00
S'\xfaKP:\xba\x9f\xcc<'
p218
tp219
bag1
(g2
(I0
tp220
g4
tp221
Rp222
(I1
(I2
I1
tp223
g11
I00
S':\xc5\x8a:S\xef\xca<'
p224
tp225
bag1
(g2
(I0
tp226
g4
tp227
Rp228
(I1
(I2
I1
tp229
g11
I00
S'\xcd\x03\xc4:\x9fw\xcb<'
p230
tp231
bag1
(g2
(I0
tp232
g4
tp233
Rp234
(I1
(I2
I1
tp235
g11
I00
S'\xd3-\x93:\x9aK\xc8<'
p236
tp237
bag1
(g2
(I0
tp238
g4
tp239
Rp240
(I1
(I2
I1
tp241
g11
I00
S'\xbd\xb7C;B\xbb\xc5<'
p242
tp243
bag1
(g2
(I0
tp244
g4
tp245
Rp246
(I1
(I2
I1
tp247
g11
I00
S'\r\xea\xf8:\x9e\xe6\xc3<'
p248
tp249
bag1
(g2
(I0
tp250
g4
tp251
Rp252
(I1
(I2
I1
tp253
g11
I00
S'\xe7\xa2\x16;\xb9\x18\xc2<'
p254
tp255
bag1
(g2
(I0
tp256
g4
tp257
Rp258
(I1
(I2
I1
tp259
g11
I00
S'\xe5\xa5/;Y\xb5\xbe<'
p260
tp261
bag1
(g2
(I0
tp262
g4
tp263
Rp264
(I1
(I2
I1
tp265
g11
I00
S'0\x0b8;[:\xbf<'
p266
tp267
bag1
(g2
(I0
tp268
g4
tp269
Rp270
(I1
(I2
I1
tp271
g11
I00
S'\xe31:;\xd7[\xbf<'
p272
tp273
bag1
(g2
(I0
tp274
g4
tp275
Rp276
(I1
(I2
I1
tp277
g11
I00
S'\xd0\xed\x16;Ut\xbb<'
p278
tp279
bag1
(g2
(I0
tp280
g4
tp281
Rp282
(I1
(I2
I1
tp283
g11
I00
S'\xeb\xd7#;\xae\xf9\xb9<'
p284
tp285
bag1
(g2
(I0
tp286
g4
tp287
Rp288
(I1
(I2
I1
tp289
g11
I00
S'\xda\x1dX;\n\xe3\xb7<'
p290
tp291
bag1
(g2
(I0
tp292
g4
tp293
Rp294
(I1
(I2
I1
tp295
g11
I00
S'\xf2|h;\x1b\x87\xb6<'
p296
tp297
bag1
(g2
(I0
tp298
g4
tp299
Rp300
(I1
(I2
I1
tp301
g11
I00
S'\nJz;\xba\xd7\xb5<'
p302
tp303
bag1
(g2
(I0
tp304
g4
tp305
Rp306
(I1
(I2
I1
tp307
g11
I00
S'\xd2iH;\xcb\x98\xb5<'
p308
tp309
bag1
(g2
(I0
tp310
g4
tp311
Rp312
(I1
(I2
I1
tp313
g11
I00
S'\x13@~;\xb3>\xa6<'
p314
tp315
bag1
(g2
(I0
tp316
g4
tp317
Rp318
(I1
(I2
I1
tp319
g11
I00
S'"#\x90;\x9c,\xa5<'
p320
tp321
bag1
(g2
(I0
tp322
g4
tp323
Rp324
(I1
(I2
I1
tp325
g11
I00
S'7\xcb\x8c;\xb1\xe9\xa3<'
p326
tp327
bag1
(g2
(I0
tp328
g4
tp329
Rp330
(I1
(I2
I1
tp331
g11
I00
S'}cu;\xef\x00\xa3<'
p332
tp333
bag1
(g2
(I0
tp334
g4
tp335
Rp336
(I1
(I2
I1
tp337
g11
I00
S'\xdf\x8b\x8b;\xd5\xe5\xa0<'
p338
tp339
bag1
(g2
(I0
tp340
g4
tp341
Rp342
(I1
(I2
I1
tp343
g11
I00
S'\xd2\xf1\x90;X\xe4\xa0<'
p344
tp345
bag1
(g2
(I0
tp346
g4
tp347
Rp348
(I1
(I2
I1
tp349
g11
I00
S'M\x9cc;0\x01\xa0<'
p350
tp351
bag1
(g2
(I0
tp352
g4
tp353
Rp354
(I1
(I2
I1
tp355
g11
I00
S'\x97B\xb2;T\xe9\xa0<'
p356
tp357
bag1
(g2
(I0
tp358
g4
tp359
Rp360
(I1
(I2
I1
tp361
g11
I00
S'\x0b\xdd\xb0;q\xbb\xa0<'
p362
tp363
bag1
(g2
(I0
tp364
g4
tp365
Rp366
(I1
(I2
I1
tp367
g11
I00
S'\x1d\xf5u;\xd8V\x9f<'
p368
tp369
bag1
(g2
(I0
tp370
g4
tp371
Rp372
(I1
(I2
I1
tp373
g11
I00
S'\xdb4\x95;\xd5y\xa0<'
p374
tp375
bag1
(g2
(I0
tp376
g4
tp377
Rp378
(I1
(I2
I1
tp379
g11
I00
S'7\x0bv;\xd3\xac\x9f<'
p380
tp381
bag1
(g2
(I0
tp382
g4
tp383
Rp384
(I1
(I2
I1
tp385
g11
I00
S'S#\x90;\x07\xf6\xa0<'
p386
tp387
bag1
(g2
(I0
tp388
g4
tp389
Rp390
(I1
(I2
I1
tp391
g11
I00
S'\xc3eq;\xf78\xa1<'
p392
tp393
bag1
(g2
(I0
tp394
g4
tp395
Rp396
(I1
(I2
I1
tp397
g11
I00
S'\xc2\xdbu;;\xc6\xa0<'
p398
tp399
bag1
(g2
(I0
tp400
g4
tp401
Rp402
(I1
(I2
I1
tp403
g11
I00
S'\xe8\xd3\x8c;\xfb1\x9f<'
p404
tp405
bag1
(g2
(I0
tp406
g4
tp407
Rp408
(I1
(I2
I1
tp409
g11
I00
S'8\x96\x86;\xf5\xc6\x9d<'
p410
tp411
bag1
(g2
(I0
tp412
g4
tp413
Rp414
(I1
(I2
I1
tp415
g11
I00
S'\xf0\xb0\xa4;\x90\xaf\x9e<'
p416
tp417
bag1
(g2
(I0
tp418
g4
tp419
Rp420
(I1
(I2
I1
tp421
g11
I00
S'\xcd\x1a\xa0;j\xb4\x9e<'
p422
tp423
bag1
(g2
(I0
tp424
g4
tp425
Rp426
(I1
(I2
I1
tp427
g11
I00
S'w\xc4\x90;.\x99\x9e<'
p428
tp429
bag1
(g2
(I0
tp430
g4
tp431
Rp432
(I1
(I2
I1
tp433
g11
I00
S'[\x97\x85;K\xb4\x9d<'
p434
tp435
bag1
(g2
(I0
tp436
g4
tp437
Rp438
(I1
(I2
I1
tp439
g11
I00
S'c`e;W\xb8\x9e<'
p440
tp441
bag1
(g2
(I0
tp442
g4
tp443
Rp444
(I1
(I2
I1
tp445
g11
I00
S'\xa2_\x84;\xc3(\x9f<'
p446
tp447
bag1
(g2
(I0
tp448
g4
tp449
Rp450
(I1
(I2
I1
tp451
g11
I00
S'\xabFd;_\x8f\xa0<'
p452
tp453
bag1
(g2
(I0
tp454
g4
tp455
Rp456
(I1
(I2
I1
tp457
g11
I00
S'\xb0\x13\x84;b\x9e\xa3<'
p458
tp459
bag1
(g2
(I0
tp460
g4
tp461
Rp462
(I1
(I2
I1
tp463
g11
I00
S'*\xd1\x81;\x8a\xf5\xa4<'
p464
tp465
bag1
(g2
(I0
tp466
g4
tp467
Rp468
(I1
(I2
I1
tp469
g11
I00
S'\xd5,\x89;\xf3\x9d\xa3<'
p470
tp471
bag1
(g2
(I0
tp472
g4
tp473
Rp474
(I1
(I2
I1
tp475
g11
I00
S'\xf0&\x91;\x87\xca\xa3<'
p476
tp477
bag1
(g2
(I0
tp478
g4
tp479
Rp480
(I1
(I2
I1
tp481
g11
I00
S'\xbd\xa5\x80;l\xa5\x9d<'
p482
tp483
bag1
(g2
(I0
tp484
g4
tp485
Rp486
(I1
(I2
I1
tp487
g11
I00
S'\xbf\x90v;%X\x9d<'
p488
tp489
bag1
(g2
(I0
tp490
g4
tp491
Rp492
(I1
(I2
I1
tp493
g11
I00
S']P\x83;o\xf8\x9c<'
p494
tp495
bag1
(g2
(I0
tp496
g4
tp497
Rp498
(I1
(I2
I1
tp499
g11
I00
S'*\\y;/X\x9c<'
p500
tp501
bag1
(g2
(I0
tp502
g4
tp503
Rp504
(I1
(I2
I1
tp505
g11
I00
S'\xda\xf4I;[\xa0\x99<'
p506
tp507
bag1
(g2
(I0
tp508
g4
tp509
Rp510
(I1
(I2
I1
tp511
g11
I00
S'5\xc2\x8d;K\x11\x99<'
p512
tp513
bag1
(g2
(I0
tp514
g4
tp515
Rp516
(I1
(I2
I1
tp517
g11
I00
S'\xfd\x97\x8c;\x03\x10\x99<'
p518
tp519
bag1
(g2
(I0
tp520
g4
tp521
Rp522
(I1
(I2
I1
tp523
g11
I00
S'\xb7[\xb0;\x02\x92\x99<'
p524
tp525
bag1
(g2
(I0
tp526
g4
tp527
Rp528
(I1
(I2
I1
tp529
g11
I00
S'pz\x88;U\xfd\x98<'
p530
tp531
bag1
(g2
(I0
tp532
g4
tp533
Rp534
(I1
(I2
I1
tp535
g11
I00
S'\xf5\xa1\x88;\xd1b\x99<'
p536
tp537
bag1
(g2
(I0
tp538
g4
tp539
Rp540
(I1
(I2
I1
tp541
g11
I00
S'\xdd\xfbq;\xa19\x99<'
p542
tp543
bag1
(g2
(I0
tp544
g4
tp545
Rp546
(I1
(I2
I1
tp547
g11
I00
S'\x1d\xbd\x80;,P\x98<'
p548
tp549
bag1
(g2
(I0
tp550
g4
tp551
Rp552
(I1
(I2
I1
tp553
g11
I00
S'\x0b\x92|;O\xf2\x99<'
p554
tp555
bag1
(g2
(I0
tp556
g4
tp557
Rp558
(I1
(I2
I1
tp559
g11
I00
S'\xbdD\x83;\xf7\xaf\x9a<'
p560
tp561
bag1
(g2
(I0
tp562
g4
tp563
Rp564
(I1
(I2
I1
tp565
g11
I00
S'B}g;\x83*\x9a<'
p566
tp567
bag1
(g2
(I0
tp568
g4
tp569
Rp570
(I1
(I2
I1
tp571
g11
I00
S'R\x0c\x85;\x83\x93\x99<'
p572
tp573
bag1
(g2
(I0
tp574
g4
tp575
Rp576
(I1
(I2
I1
tp577
g11
I00
S'\x90\x12|;\x94\x16\x99<'
p578
tp579
bag1
(g2
(I0
tp580
g4
tp581
Rp582
(I1
(I2
I1
tp583
g11
I00
S'\xf7\xff\x8e;~\xc1\x98<'
p584
tp585
bag1
(g2
(I0
tp586
g4
tp587
Rp588
(I1
(I2
I1
tp589
g11
I00
S'\x97)\x88;\x93W\x96<'
p590
tp591
bag1
(g2
(I0
tp592
g4
tp593
Rp594
(I1
(I2
I1
tp595
g11
I00
S'\x87\xae\x80;8d\x94<'
p596
tp597
bag1
(g2
(I0
tp598
g4
tp599
Rp600
(I1
(I2
I1
tp601
g11
I00
S'\x16\xd2\x8f;\xb22\x91<'
p602
tp603
bag1
(g2
(I0
tp604
g4
tp605
Rp606
(I1
(I2
I1
tp607
g11
I00
S'\xef\xd9\x95;\xca\x10\x8d<'
p608
tp609
bag1
(g2
(I0
tp610
g4
tp611
Rp612
(I1
(I2
I1
tp613
g11
I00
S'\xc5\xfc\xd4:E\x8d\xef;'
p614
tp615
bag1
(g2
(I0
tp616
g4
tp617
Rp618
(I1
(I2
I1
tp619
g11
I00
S'\xb5:\x02;j\xc2\xdf;'
p620
tp621
bag1
(g2
(I0
tp622
g4
tp623
Rp624
(I1
(I2
I1
tp625
g11
I00
S'\x89\xac\x1b;U(\xd2;'
p626
tp627
bag1
(g2
(I0
tp628
g4
tp629
Rp630
(I1
(I2
I1
tp631
g11
I00
S'\xf3\xed\x1d;e"\xc3;'
p632
tp633
bag1
(g2
(I0
tp634
g4
tp635
Rp636
(I1
(I2
I1
tp637
g11
I00
S'\xdd}\x97;\xa7l\xa8;'
p638
tp639
bag1
(g2
(I0
tp640
g4
tp641
Rp642
(I1
(I2
I1
tp643
g11
I00
S'\xdeW\x0f;\xaez\xbb;'
p644
tp645
bag1
(g2
(I0
tp646
g4
tp647
Rp648
(I1
(I2
I1
tp649
g11
I00
S'\xcd\x0b\xde:\xc3\xe5\xb2;'
p650
tp651
bag1
(g2
(I0
tp652
g4
tp653
Rp654
(I1
(I2
I1
tp655
g11
I00
S'Pl\xe0:.p\xaf;'
p656
tp657
bag1
(g2
(I0
tp658
g4
tp659
Rp660
(I1
(I2
I1
tp661
g11
I00
S'\xb5|\xdb:\x17Q\xa5;'
p662
tp663
bag1
(g2
(I0
tp664
g4
tp665
Rp666
(I1
(I2
I1
tp667
g11
I00
S'\x10"\xe0:\\\xfb\xa9;'
p668
tp669
bag1
(g2
(I0
tp670
g4
tp671
Rp672
(I1
(I2
I1
tp673
g11
I00
S'u\xba\x00;\xd7\xe4\x9f;'
p674
tp675
bag1
(g2
(I0
tp676
g4
tp677
Rp678
(I1
(I2
I1
tp679
g11
I00
S'T,\x15;\xf3\xb0\x9c;'
p680
tp681
bag1
(g2
(I0
tp682
g4
tp683
Rp684
(I1
(I2
I1
tp685
g11
I00
S'G\xa4\xdb:w*\x9b;'
p686
tp687
bag1
(g2
(I0
tp688
g4
tp689
Rp690
(I1
(I2
I1
tp691
g11
I00
S'5,\xe4:\x8a\x14\x9c;'
p692
tp693
bag1
(g2
(I0
tp694
g4
tp695
Rp696
(I1
(I2
I1
tp697
g11
I00
S'M\xd4\xcb:4\x04\x96;'
p698
tp699
bag1
(g2
(I0
tp700
g4
tp701
Rp702
(I1
(I2
I1
tp703
g11
I00
S'm\xeb\xfc:\x8d\xc5\x97;'
p704
tp705
bag1
(g2
(I0
tp706
g4
tp707
Rp708
(I1
(I2
I1
tp709
g11
I00
S' @\xeb:\xdf-\x9c;'
p710
tp711
bag1
(g2
(I0
tp712
g4
tp713
Rp714
(I1
(I2
I1
tp715
g11
I00
S'\xdd\x0f\xe2:\xdf;\xa0;'
p716
tp717
bag1
(g2
(I0
tp718
g4
tp719
Rp720
(I1
(I2
I1
tp721
g11
I00
S'\x93\xec\xce:\x13D\xa6;'
p722
tp723
bag1
(g2
(I0
tp724
g4
tp725
Rp726
(I1
(I2
I1
tp727
g11
I00
S'r\xf5r:iL\xb3;'
p728
tp729
bag1
(g2
(I0
tp730
g4
tp731
Rp732
(I1
(I2
I1
tp733
g11
I00
S'Z\x00\xea:\x86\x7f\xab;'
p734
tp735
bag1
(g2
(I0
tp736
g4
tp737
Rp738
(I1
(I2
I1
tp739
g11
I00
S'\x8b\xb9\xc0:#\x14\xaf;'
p740
tp741
bag1
(g2
(I0
tp742
g4
tp743
Rp744
(I1
(I2
I1
tp745
g11
I00
S'\xba\xbd\xb0:\x93\xdc\xb3;'
p746
tp747
bag1
(g2
(I0
tp748
g4
tp749
Rp750
(I1
(I2
I1
tp751
g11
I00
S':a";\x97\xb6\xa9;'
p752
tp753
bag1
(g2
(I0
tp754
g4
tp755
Rp756
(I1
(I2
I1
tp757
g11
I00
S'/\xfe\xb8:\x08\x92\xaf;'
p758
tp759
bag1
(g2
(I0
tp760
g4
tp761
Rp762
(I1
(I2
I1
tp763
g11
I00
S'\xcd9\xde:\xc33\xbb;'
p764
tp765
bag1
(g2
(I0
tp766
g4
tp767
Rp768
(I1
(I2
I1
tp769
g11
I00
S'\xfb\xbb\xca:\xcfI\xb8;'
p770
tp771
bag1
(g2
(I0
tp772
g4
tp773
Rp774
(I1
(I2
I1
tp775
g11
I00
S'E\x8f\xe1:\xec\xdd\xb3;'
p776
tp777
bag1
(g2
(I0
tp778
g4
tp779
Rp780
(I1
(I2
I1
tp781
g11
I00
S'\xbaw\xbe:\x10\xe1\xb2;'
p782
tp783
bag1
(g2
(I0
tp784
g4
tp785
Rp786
(I1
(I2
I1
tp787
g11
I00
S' \xe7\xe4: \xf4\xa8;'
p788
tp789
bag1
(g2
(I0
tp790
g4
tp791
Rp792
(I1
(I2
I1
tp793
g11
I00
S'\x01\x97\x13;\xaf\xfe\xab;'
p794
tp795
bag1
(g2
(I0
tp796
g4
tp797
Rp798
(I1
(I2
I1
tp799
g11
I00
S'\xc7b\xc3:\x87R\xaa;'
p800
tp801
bag1
(g2
(I0
tp802
g4
tp803
Rp804
(I1
(I2
I1
tp805
g11
I00
S'o\xcf\xdd:\xa7\xdc\xb2;'
p806
tp807
bag1
(g2
(I0
tp808
g4
tp809
Rp810
(I1
(I2
I1
tp811
g11
I00
S'\x17\xcf\xbe:;=\xb8;'
p812
tp813
bag1
(g2
(I0
tp814
g4
tp815
Rp816
(I1
(I2
I1
tp817
g11
I00
S']\x10\xc3:\x03}\xb1;'
p818
tp819
bag1
(g2
(I0
tp820
g4
tp821
Rp822
(I1
(I2
I1
tp823
g11
I00
S'\x1d\xaf\xd9:\xbaJ\xbb;'
p824
tp825
bag1
(g2
(I0
tp826
g4
tp827
Rp828
(I1
(I2
I1
tp829
g11
I00
S'\x96\xa6);o\x87\xbd;'
p830
tp831
bag1
(g2
(I0
tp832
g4
tp833
Rp834
(I1
(I2
I1
tp835
g11
I00
S'z\x88.;J\xc7\xc6;'
p836
tp837
bag1
(g2
(I0
tp838
g4
tp839
Rp840
(I1
(I2
I1
tp841
g11
I00
S'\x8fj\x07;\xaf\xa1\xca;'
p842
tp843
bag1
(g2
(I0
tp844
g4
tp845
Rp846
(I1
(I2
I1
tp847
g11
I00
S'\x8aQ\xe7:+\xc0\xd5;'
p848
tp849
bag1
(g2
(I0
tp850
g4
tp851
Rp852
(I1
(I2
I1
tp853
g11
I00
S'\x9fG\x10;s\x13\xd2;'
p854
tp855
bag1
(g2
(I0
tp856
g4
tp857
Rp858
(I1
(I2
I1
tp859
g11
I00
S'J\x81\xe7:\xab\x1c\xd9;'
p860
tp861
bag1
(g2
(I0
tp862
g4
tp863
Rp864
(I1
(I2
I1
tp865
g11
I00
S' >\xc3:#\xfa\xd9;'
p866
tp867
bag1
(g2
(I0
tp868
g4
tp869
Rp870
(I1
(I2
I1
tp871
g11
I00
S'w\x8a\xf4:\n\xe2\xe0;'
p872
tp873
bag1
(g2
(I0
tp874
g4
tp875
Rp876
(I1
(I2
I1
tp877
g11
I00
S'b\xe8\x08;\xe7\xdc\xe4;'
p878
tp879
bag1
(g2
(I0
tp880
g4
tp881
Rp882
(I1
(I2
I1
tp883
g11
I00
S'\x95\xbf\xfe:0X\xeb;'
p884
tp885
bag1
(g2
(I0
tp886
g4
tp887
Rp888
(I1
(I2
I1
tp889
g11
I00
S'\x80\xff\xe6:+1\xf2;'
p890
tp891
bag1
(g2
(I0
tp892
g4
tp893
Rp894
(I1
(I2
I1
tp895
g11
I00
S'+}\xac:\xba\x8f\xfd;'
p896
tp897
bag1
(g2
(I0
tp898
g4
tp899
Rp900
(I1
(I2
I1
tp901
g11
I00
S'B\xe8\x9b:z\xa5\x00<'
p902
tp903
bag1
(g2
(I0
tp904
g4
tp905
Rp906
(I1
(I2
I1
tp907
g11
I00
S'`\xb5\xdd:\x18\xae\xf8;'
p908
tp909
ba.